target datalayout = "e-m:e-p270:32:32-p271:32:32-p272:64:64-i64:64-i128:128-f80:128-n8:16:32:64-S128"
target triple = "x86_64-pc-linux-gnu"

%struct.Abc_Frame_t_ = type { ptr, ptr, ptr, ptr, ptr, ptr, ptr, ptr, ptr, ptr, i32, i32, i32, i32, i32, ptr, float, float, i32, i32, ptr, ptr, ptr, double, double, ptr, ptr, ptr, ptr, ptr, ptr, ptr, ptr, ptr, ptr, ptr, ptr, float, ptr, i32, ptr, ptr, ptr, ptr, ptr, i32, i32, i32, i32, i32, i32, ptr, ptr, ptr, ptr, ptr, ptr, i32, i32, ptr, ptr, ptr, ptr, ptr, ptr, ptr, ptr, ptr, ptr, ptr, ptr, ptr, ptr, ptr, ptr, ptr, ptr, ptr, ptr, ptr, ptr, ptr, ptr, ptr, ptr, ptr, ptr, ptr, ptr }

@.str.29 = private unnamed_addr constant [3 x i8] c".s\00", align 1
@globalUtilOptind = external global i32, align 4
@.str.47 = private unnamed_addr constant [60 x i8] c"Command line switch \22-N\22 should be followed by an integer.\0A\00", align 1
@.str.48 = private unnamed_addr constant [3 x i8] c"rb\00", align 1
@.str.58 = private unnamed_addr constant [2 x i8] c"\0A\00", align 1
@.str.79 = private unnamed_addr constant [4 x i8] c"yes\00", align 1
@.str.80 = private unnamed_addr constant [3 x i8] c"no\00", align 1
@.str.216 = private unnamed_addr constant [5 x i8] c"PCvh\00", align 1
@.str.217 = private unnamed_addr constant [79 x i8] c"Command line switch \22-C\22 should be followed by a string (possibly in quotes).\0A\00", align 1
@.str.218 = private unnamed_addr constant [52 x i8] c"The file name should be given on the command line.\0A\00", align 1
@.str.219 = private unnamed_addr constant [10 x i8] c"open_path\00", align 1
@.str.220 = private unnamed_addr constant [30 x i8] c"Cannot open input file \22%s\22. \00", align 1
@.str.221 = private unnamed_addr constant [3 x i8] c".c\00", align 1
@.str.222 = private unnamed_addr constant [5 x i8] c".scr\00", align 1
@.str.223 = private unnamed_addr constant [8 x i8] c".script\00", align 1
@.str.224 = private unnamed_addr constant [19 x i8] c"Did you mean \22%s\22?\00", align 1
@.str.225 = private unnamed_addr constant [47 x i8] c"usage: starter [-P num] [-C cmd] [-vh] <file>\0A\00", align 1
@.str.226 = private unnamed_addr constant [74 x i8] c"\09         runs command lines listed in <file> concurrently on <num> CPUs\0A\00", align 1
@.str.227 = private unnamed_addr constant [81 x i8] c"\09-P num : the number of concurrent jobs including the controller [default = %d]\0A\00", align 1
@.str.228 = private unnamed_addr constant [74 x i8] c"\09-C cmd : (optional) ABC command line to execute on benchmarks in <file>\0A\00", align 1
@.str.229 = private unnamed_addr constant [62 x i8] c"\09-v     : toggle printing verbose information [default = %s]\0A\00", align 1
@.str.230 = private unnamed_addr constant [35 x i8] c"\09-h     : print the command usage\0A\00", align 1
@.str.231 = private unnamed_addr constant [84 x i8] c"\09<file> : file name with ABC command lines (or benchmark names, if <cmd> is given)\0A\00", align 1

; Function Attrs: nounwind uwtable
define internal i32 @CmdCommandStarter(ptr noundef %0, i32 noundef %1, ptr noundef %2) #0 {
  %4 = alloca i32, align 4
  %5 = alloca ptr, align 8
  %6 = alloca i32, align 4
  %7 = alloca ptr, align 8
  %8 = alloca ptr, align 8
  %9 = alloca ptr, align 8
  %10 = alloca ptr, align 8
  %11 = alloca i32, align 4
  %12 = alloca i32, align 4
  %13 = alloca i32, align 4
  store ptr %0, ptr %5, align 8
  store i32 %1, ptr %6, align 4
  store ptr %2, ptr %7, align 8
  store ptr null, ptr %10, align 8
  store i32 3, ptr %12, align 4
  store i32 0, ptr %13, align 4
  call void (...) @Extra_UtilGetoptReset()
  br label %14

14:                                               ; preds = %57, %3
  %15 = load i32, ptr %6, align 4
  %16 = load ptr, ptr %7, align 8
  %17 = call i32 @Extra_UtilGetopt(i32 noundef %15, ptr noundef %16, ptr noundef @.str.216)
  store i32 %17, ptr %11, align 4
  %18 = icmp ne i32 %17, -1
  br i1 %18, label %19, label %58

19:                                               ; preds = %14
  %20 = load i32, ptr %11, align 4
  switch i32 %20, label %56 [
    i32 80, label %21
    i32 67, label %39
    i32 118, label %52
    i32 104, label %55
  ]

21:                                               ; preds = %19
  %22 = load i32, ptr @globalUtilOptind, align 4
  %23 = load i32, ptr %6, align 4
  %24 = icmp sge i32 %22, %23
  br i1 %24, label %25, label %26

25:                                               ; preds = %21
  call void (i32, ptr, ...) @Abc_Print(i32 noundef -1, ptr noundef @.str.47)
  br label %91

26:                                               ; preds = %21
  %27 = load ptr, ptr %7, align 8
  %28 = load i32, ptr @globalUtilOptind, align 4
  %29 = sext i32 %28 to i64
  %30 = getelementptr inbounds ptr, ptr %27, i64 %29
  %31 = load ptr, ptr %30, align 8
  %32 = call i32 @atoi(ptr noundef %31) #10
  store i32 %32, ptr %12, align 4
  %33 = load i32, ptr @globalUtilOptind, align 4
  %34 = add nsw i32 %33, 1
  store i32 %34, ptr @globalUtilOptind, align 4
  %35 = load i32, ptr %12, align 4
  %36 = icmp slt i32 %35, 0
  br i1 %36, label %37, label %38

37:                                               ; preds = %26
  br label %91

38:                                               ; preds = %26
  br label %57

39:                                               ; preds = %19
  %40 = load i32, ptr @globalUtilOptind, align 4
  %41 = load i32, ptr %6, align 4
  %42 = icmp sge i32 %40, %41
  br i1 %42, label %43, label %44

43:                                               ; preds = %39
  call void (i32, ptr, ...) @Abc_Print(i32 noundef -1, ptr noundef @.str.217)
  br label %91

44:                                               ; preds = %39
  %45 = load ptr, ptr %7, align 8
  %46 = load i32, ptr @globalUtilOptind, align 4
  %47 = sext i32 %46 to i64
  %48 = getelementptr inbounds ptr, ptr %45, i64 %47
  %49 = load ptr, ptr %48, align 8
  store ptr %49, ptr %10, align 8
  %50 = load i32, ptr @globalUtilOptind, align 4
  %51 = add nsw i32 %50, 1
  store i32 %51, ptr @globalUtilOptind, align 4
  br label %57

52:                                               ; preds = %19
  %53 = load i32, ptr %13, align 4
  %54 = xor i32 %53, 1
  store i32 %54, ptr %13, align 4
  br label %57

55:                                               ; preds = %19
  br label %91

56:                                               ; preds = %19
  br label %91

57:                                               ; preds = %52, %44, %38
  br label %14, !llvm.loop !30

58:                                               ; preds = %14
  %59 = load i32, ptr %6, align 4
  %60 = load i32, ptr @globalUtilOptind, align 4
  %61 = add nsw i32 %60, 1
  %62 = icmp ne i32 %59, %61
  br i1 %62, label %63, label %64

63:                                               ; preds = %58
  call void (i32, ptr, ...) @Abc_Print(i32 noundef -2, ptr noundef @.str.218)
  store i32 1, ptr %4, align 4
  br label %96

64:                                               ; preds = %58
  %65 = load ptr, ptr %7, align 8
  %66 = load i32, ptr @globalUtilOptind, align 4
  %67 = sext i32 %66 to i64
  %68 = getelementptr inbounds ptr, ptr %65, i64 %67
  %69 = load ptr, ptr %68, align 8
  store ptr %69, ptr %9, align 8
  %70 = load ptr, ptr %9, align 8
  %71 = call ptr @Io_FileOpen(ptr noundef %70, ptr noundef @.str.219, ptr noundef @.str.48, i32 noundef 0)
  store ptr %71, ptr %8, align 8
  %72 = icmp eq ptr %71, null
  br i1 %72, label %73, label %81

73:                                               ; preds = %64
  %74 = load ptr, ptr %9, align 8
  call void (i32, ptr, ...) @Abc_Print(i32 noundef -2, ptr noundef @.str.220, ptr noundef %74)
  %75 = load ptr, ptr %9, align 8
  %76 = call ptr @Extra_FileGetSimilarName(ptr noundef %75, ptr noundef @.str.221, ptr noundef @.str.29, ptr noundef @.str.222, ptr noundef @.str.223, ptr noundef null)
  store ptr %76, ptr %9, align 8
  %77 = icmp ne ptr %76, null
  br i1 %77, label %78, label %80

78:                                               ; preds = %73
  %79 = load ptr, ptr %9, align 8
  call void (i32, ptr, ...) @Abc_Print(i32 noundef -2, ptr noundef @.str.224, ptr noundef %79)
  br label %80

80:                                               ; preds = %78, %73
  call void (i32, ptr, ...) @Abc_Print(i32 noundef -2, ptr noundef @.str.58)
  store i32 1, ptr %4, align 4
  br label %96

81:                                               ; preds = %64
  %82 = load ptr, ptr %8, align 8
  %83 = call i32 @fclose(ptr noundef %82)
  %84 = load ptr, ptr %9, align 8
  %85 = load ptr, ptr %5, align 8
  %86 = getelementptr inbounds %struct.Abc_Frame_t_, ptr %85, i32 0, i32 1
  %87 = load ptr, ptr %86, align 8
  %88 = load ptr, ptr %10, align 8
  %89 = load i32, ptr %12, align 4
  %90 = load i32, ptr %13, align 4
  call void @Cmd_RunStarter(ptr noundef %84, ptr noundef %87, ptr noundef %88, i32 noundef %89, i32 noundef %90)
  store i32 0, ptr %4, align 4
  br label %96

91:                                               ; preds = %56, %55, %43, %37, %25
  call void (i32, ptr, ...) @Abc_Print(i32 noundef -2, ptr noundef @.str.225)
  call void (i32, ptr, ...) @Abc_Print(i32 noundef -2, ptr noundef @.str.226)
  %92 = load i32, ptr %12, align 4
  call void (i32, ptr, ...) @Abc_Print(i32 noundef -2, ptr noundef @.str.227, i32 noundef %92)
  call void (i32, ptr, ...) @Abc_Print(i32 noundef -2, ptr noundef @.str.228)
  %93 = load i32, ptr %13, align 4
  %94 = icmp ne i32 %93, 0
  %95 = select i1 %94, ptr @.str.79, ptr @.str.80
  call void (i32, ptr, ...) @Abc_Print(i32 noundef -2, ptr noundef @.str.229, ptr noundef %95)
  call void (i32, ptr, ...) @Abc_Print(i32 noundef -2, ptr noundef @.str.230)
  call void (i32, ptr, ...) @Abc_Print(i32 noundef -2, ptr noundef @.str.231)
  store i32 1, ptr %4, align 4
  br label %96

96:                                               ; preds = %91, %81, %80, %63
  %97 = load i32, ptr %4, align 4
  ret i32 %97
}