; Function Attrs: nounwind uwtable
define internal range(i32 0, 2) i32 @CmdCommandStarter(ptr noundef readonly captures(none) %0, i32 noundef %1, ptr noundef %2) #0 {
  tail call void (...) @Extra_UtilGetoptReset() #17
  br label %.outer

.outer:                                           ; preds = %17, %3
  %.026.ph = phi ptr [ %20, %17 ], [ null, %3 ]
  %.023.ph = phi i32 [ %.023.ph78, %17 ], [ 3, %3 ]
  %.0.ph = phi i32 [ %.0, %17 ], [ 0, %3 ]
  br label %.outer77

.outer77:                                         ; preds = %.outer, %8
  %.023.ph78 = phi i32 [ %.023.ph, %.outer ], [ %12, %8 ]
  %.0.ph79 = phi i32 [ %.0.ph, %.outer ], [ %.0, %8 ]
  br label %4

4:                                                ; preds = %.outer77, %22
  %.0 = phi i32 [ %23, %22 ], [ %.0.ph79, %.outer77 ]
  %5 = tail call i32 @Extra_UtilGetopt(i32 noundef %1, ptr noundef %2, ptr noundef nonnull @.str.216) #17
  switch i32 %5, label %.loopexit [
    i32 -1, label %24
    i32 80, label %6
    i32 67, label %15
    i32 118, label %22
  ]

6:                                                ; preds = %4
  %7 = load i32, ptr @globalUtilOptind, align 4
  %.not38 = icmp slt i32 %7, %1
  br i1 %.not38, label %8, label %.loopexit.sink.split

8:                                                ; preds = %6
  %9 = sext i32 %7 to i64
  %10 = getelementptr inbounds ptr, ptr %2, i64 %9
  %11 = load ptr, ptr %10, align 8
  %12 = tail call i32 @atoi(ptr noundef %11) #19
  %13 = add nsw i32 %7, 1
  store i32 %13, ptr @globalUtilOptind, align 4
  %14 = icmp slt i32 %12, 0
  br i1 %14, label %.loopexit, label %.outer77, !llvm.loop !30

15:                                               ; preds = %4
  %16 = load i32, ptr @globalUtilOptind, align 4
  %.not37 = icmp slt i32 %16, %1
  br i1 %.not37, label %17, label %.loopexit.sink.split

17:                                               ; preds = %15
  %18 = sext i32 %16 to i64
  %19 = getelementptr inbounds ptr, ptr %2, i64 %18
  %20 = load ptr, ptr %19, align 8
  %21 = add nsw i32 %16, 1
  store i32 %21, ptr @globalUtilOptind, align 4
  br label %.outer, !llvm.loop !30

22:                                               ; preds = %4
  %23 = xor i32 %.0, 1
  br label %4, !llvm.loop !30

24:                                               ; preds = %4
  %25 = load i32, ptr @globalUtilOptind, align 4
  %26 = add nsw i32 %25, 1
  %.not35 = icmp eq i32 %1, %26
  br i1 %.not35, label %28, label %27

27:                                               ; preds = %24
  tail call void (i32, ptr, ...) @Abc_Print(i32 noundef -2, ptr noundef nonnull @.str.218)
  br label %43

28:                                               ; preds = %24
  %29 = sext i32 %25 to i64
  %30 = getelementptr inbounds ptr, ptr %2, i64 %29
  %31 = load ptr, ptr %30, align 8
  %32 = tail call ptr @Io_FileOpen(ptr noundef %31, ptr noundef nonnull @.str.219, ptr noundef nonnull @.str.48, i32 noundef 0) #17
  %33 = icmp eq ptr %32, null
  br i1 %33, label %34, label %38

34:                                               ; preds = %28
  tail call void (i32, ptr, ...) @Abc_Print(i32 noundef -2, ptr noundef nonnull @.str.220, ptr noundef %31)
  %35 = tail call ptr @Extra_FileGetSimilarName(ptr noundef %31, ptr noundef nonnull @.str.221, ptr noundef nonnull @.str.29, ptr noundef nonnull @.str.222, ptr noundef nonnull @.str.223, ptr noundef null) #17
  %.not36 = icmp eq ptr %35, null
  br i1 %.not36, label %37, label %36

36:                                               ; preds = %34
  tail call void (i32, ptr, ...) @Abc_Print(i32 noundef -2, ptr noundef nonnull @.str.224, ptr noundef nonnull %35)
  br label %37

37:                                               ; preds = %36, %34
  tail call void (i32, ptr, ...) @Abc_Print(i32 noundef -2, ptr noundef nonnull @.str.58)
  br label %43

38:                                               ; preds = %28
  %39 = tail call i32 @fclose(ptr noundef nonnull %32)
  %40 = getelementptr inbounds nuw i8, ptr %0, i64 8
  %41 = load ptr, ptr %40, align 8
  tail call void @Cmd_RunStarter(ptr noundef %31, ptr noundef %41, ptr noundef %.026.ph, i32 noundef %.023.ph78, i32 noundef %.0) #17
  br label %43

.loopexit.sink.split:                             ; preds = %15, %6
  %.str.217.sink = phi ptr [ @.str.47, %6 ], [ @.str.217, %15 ]
  tail call void (i32, ptr, ...) @Abc_Print(i32 noundef -1, ptr noundef nonnull %.str.217.sink)
  br label %.loopexit

.loopexit:                                        ; preds = %4, %8, %.loopexit.sink.split
  %.124 = phi i32 [ %.023.ph78, %.loopexit.sink.split ], [ %.023.ph78, %4 ], [ %12, %8 ]
  tail call void (i32, ptr, ...) @Abc_Print(i32 noundef -2, ptr noundef nonnull @.str.225)
  tail call void (i32, ptr, ...) @Abc_Print(i32 noundef -2, ptr noundef nonnull @.str.226)
  tail call void (i32, ptr, ...) @Abc_Print(i32 noundef -2, ptr noundef nonnull @.str.227, i32 noundef %.124)
  tail call void (i32, ptr, ...) @Abc_Print(i32 noundef -2, ptr noundef nonnull @.str.228)
  %.not39 = icmp eq i32 %.0, 0
  %42 = select i1 %.not39, ptr @.str.80, ptr @.str.79
  tail call void (i32, ptr, ...) @Abc_Print(i32 noundef -2, ptr noundef nonnull @.str.229, ptr noundef nonnull %42)
  tail call void (i32, ptr, ...) @Abc_Print(i32 noundef -2, ptr noundef nonnull @.str.230)
  tail call void (i32, ptr, ...) @Abc_Print(i32 noundef -2, ptr noundef nonnull @.str.231)
  br label %43

43:                                               ; preds = %.loopexit, %38, %37, %27
  %.025 = phi i32 [ 1, %.loopexit ], [ 1, %27 ], [ 1, %37 ], [ 0, %38 ]
  ret i32 %.025
}